(lp0
(lp1
S'Affibody_ABY025'
p2
aS''
p3
aS'GCCGAAGCGAAATAC'
p4
aS'GCTAGC'
p5
aS'GGATCC'
p6
aI2
a(lp7
(lp8
S'CTGCCGAACCTGACC'
p9
aI13
aI13
aI2
aa(lp10
S'GACCCGTCCCAGAGCTCTGAACTCCTGTCTGAGGCGAAGAAACTGAACGATTCCCAAGCACCAAAA'
p11
aI13
aI13
aI2
aa(lp12
g3
aI4
aI6
aI2
aa(lp13
g3
aI4
aI6
aI2
aa(lp14
g3
aI4
aI6
aI2
aa(lp15
g3
aI4
aI6
aI2
aa(lp16
g3
aI4
aI6
aI2
aa(lp17
g3
aI4
aI6
aI2
aaaa(lp18
S'DARPin'
p19
ag3
aS'GACGTTAACGCT'
p20
ag6
aS'AAGCTT'
p21
aI2
a(lp22
(lp23
S'ACTCCGCTGCACCTGGCTGCT'
p24
aI6
aI6
aI0
aa(lp25
S'GGTCACCTGGAAATCGTTGAAGTTCTGCTGAAGTACGGTGCT'
p26
aI2
aI2
aI0
aa(lp27
g3
aI4
aI6
aI2
aa(lp28
g3
aI4
aI6
aI2
aa(lp29
g3
aI4
aI6
aI2
aa(lp30
g3
aI4
aI6
aI2
aa(lp31
g3
aI4
aI6
aI2
aa(lp32
g3
aI4
aI6
aI2
aaaa(lp33
S'Fibronectin_Fn3HP'
p34
aS'High_affinity.fasta'
p35
aS'TCCTCCGACTCTCCGCGTAACCTGGAGGTTACCAACGCAACTCCGAACTCTCTGACTATTTCTTGG'
p36
ag5
ag6
aI3
a(lp37
(lp38
S'TACCGTATCACCTACGGCGAAACTGGTGGTAACTCCCCGAGCCAGGAATTCACTGTTCCG'
p39
aI6
aI10
aI3
aa(lp40
S'GCGACCATCAGCGGTCTGAAACCGGGCCAGGATTATACCATTACCGTGTACGCTGTA'
p41
aI3
aI7
aI1
aa(lp42
S'CCAATCAGCATCAATTATCGCACCGAAATCGACAAACCGTCTCAG'
p43
aI6
aI12
aI3
aa(lp44
g3
aI4
aI6
aI2
aa(lp45
g3
aI4
aI6
aI2
aa(lp46
g3
aI4
aI6
aI2
aa(lp47
g3
aI4
aI6
aI2
aa(lp48
g3
aI4
aI6
aI2
aaaa(lp49
S'Gene-2-Protein_Gp2'
p50
aS'Gp2_evolved_binders.fasta'
p51
aS'AAATTTTGGGCGACTGTA'
p52
ag5
ag6
aI2
a(lp53
(lp54
S'TTCGAGGTTCCGGTTTATGCTGAAACCCTGGACGAAGCACTGGAACTGGCCGAATGGCAGTAC'
p55
aI6
aI8
aI6
aa(lp56
S'GTGACCCGCGTGCGTCCG'
p57
aI6
aI8
aI6
aa(lp58
g3
aI4
aI6
aI2
aa(lp59
g3
aI4
aI6
aI2
aa(lp60
g3
aI4
aI6
aI2
aa(lp61
g3
aI4
aI6
aI2
aa(lp62
g3
aI4
aI6
aI2
aa(lp63
g3
aI4
aI6
aI2
aaaa(lp64
S'Knottin'
p65
ag3
aS'GGCCAGTCTGGCCAGGGCACCTGCAACACCCCGGGCTGCACCTGCAGCTGGCCGGTGTGC'
p66
aS'TGACTAGCAATGCTGACTGA'
p67
aS'TCTGGTGACTACAACAAAAAC'
p68
aI1
a(lp69
(lp70
S'TGCGGCGAAACCTGCGTGGGCGGAGGGCAGTCTGGGCAG'
p71
aI7
aI7
aI0
aa(lp72
g3
aI4
aI6
aI2
aa(lp73
g3
aI4
aI6
aI2
aa(lp74
g3
aI4
aI6
aI2
aa(lp75
g3
aI4
aI6
aI2
aa(lp76
g3
aI4
aI6
aI2
aa(lp77
g3
aI4
aI6
aI2
aa(lp78
g3
aI4
aI6
aI2
aaaa.